(dp0
S'me'
p1
F0.124
sS'lattice_constant'
p2
F0.414
sS'relative_EA'
p3
F0.135
sS'fraction_drain'
p4
F-0.0025
sS'acc'
p5
F0.23902301144450508
sS'fraction_source'
p6
F0.006
sS'Eg'
p7
F0.252
sS'mh'
p8
F2.23
s.